target datalayout = "e-m:e-p270:32:32-p271:32:32-p272:64:64-i64:64-i128:128-f80:128-n8:16:32:64-S128"
target triple = "x86_64-pc-linux-gnu"

@proto_lbttcp = internal global i32 0, align 4
@proto_register_lbttcp.ett = internal global [2 x ptr] [ptr @ett_lbttcp, ptr @ett_lbttcp_channel], align 16
@.str.10 = private unnamed_addr constant [17 x i8] c"LBT TCP Protocol\00", align 1
@.str.11 = private unnamed_addr constant [8 x i8] c"LBT-TCP\00", align 1
@.str.12 = private unnamed_addr constant [7 x i8] c"lbttcp\00", align 1
@lbttcp_dissector_handle = internal global ptr null, align 8
@.str.13 = private unnamed_addr constant [7 x i8] c"29West\00", align 1
@.str.14 = private unnamed_addr constant [16 x i8] c"source_port_low\00", align 1
@.str.15 = private unnamed_addr constant [38 x i8] c"Source port range low (default 14371)\00", align 1
@.str.16 = private unnamed_addr constant [86 x i8] c"Set the low end of the LBT-TCP source TCP port range (context transport_tcp_port_low)\00", align 1
@global_lbttcp_source_port_low = internal global i32 14371, align 4
@.str.17 = private unnamed_addr constant [17 x i8] c"source_port_high\00", align 1
@.str.18 = private unnamed_addr constant [39 x i8] c"Source port range high (default 14390)\00", align 1
@.str.19 = private unnamed_addr constant [88 x i8] c"Set the high end of the LBT-TCP source TCP port range (context transport_tcp_port_high)\00", align 1
@global_lbttcp_source_port_high = internal global i32 14390, align 4
@.str.20 = private unnamed_addr constant [17 x i8] c"request_port_low\00", align 1
@.str.21 = private unnamed_addr constant [39 x i8] c"Request port range low (default 14391)\00", align 1
@.str.22 = private unnamed_addr constant [85 x i8] c"Set the low end of the LBT-TCP request TCP port range (context request_tcp_port_low)\00", align 1
@global_lbttcp_request_port_low = internal global i32 14391, align 4
@.str.23 = private unnamed_addr constant [18 x i8] c"request_port_high\00", align 1
@.str.24 = private unnamed_addr constant [40 x i8] c"Request port range high (default 14395)\00", align 1
@.str.25 = private unnamed_addr constant [87 x i8] c"Set the high end of the LBT-TCP request TCP port range (context request_tcp_port_high)\00", align 1
@global_lbttcp_request_port_high = internal global i32 14395, align 4
@.str.26 = private unnamed_addr constant [15 x i8] c"store_port_low\00", align 1
@.str.27 = private unnamed_addr constant [37 x i8] c"UME Store port range low (default 0)\00", align 1
@.str.28 = private unnamed_addr constant [56 x i8] c"Set the low end of the LBT-TCP UME Store TCP port range\00", align 1
@global_lbttcp_store_port_low = internal global i32 0, align 4
@.str.29 = private unnamed_addr constant [16 x i8] c"store_port_high\00", align 1
@.str.30 = private unnamed_addr constant [38 x i8] c"UME Store port range high (default 0)\00", align 1
@.str.31 = private unnamed_addr constant [57 x i8] c"Set the high end of the LBT-TCP UME Store TCP port range\00", align 1
@global_lbttcp_store_port_high = internal global i32 0, align 4
@.str.32 = private unnamed_addr constant [18 x i8] c"use_lbttcp_domain\00", align 1
@.str.33 = private unnamed_addr constant [22 x i8] c"Use LBT-TCP tag table\00", align 1
@.str.34 = private unnamed_addr constant [71 x i8] c"Use table of LBT-TCP tags to decode the packet instead of above values\00", align 1
@global_lbttcp_use_tag = internal global i8 0, align 1
@.str.35 = private unnamed_addr constant [24 x i8] c"LBT-TCP tag definitions\00", align 1
@.str.36 = private unnamed_addr constant [15 x i8] c"lbttcp_domains\00", align 1
@lbttcp_tag_entry = internal global ptr null, align 8
@lbttcp_tag_count = internal global i32 0, align 4
@.str.37 = private unnamed_addr constant [16 x i8] c"tnw_lbttcp_tags\00", align 1
@.str.38 = private unnamed_addr constant [13 x i8] c"LBT-TCP Tags\00", align 1
@.str.39 = private unnamed_addr constant [31 x i8] c"A table to define LBT-TCP tags\00", align 1

; Function Attrs: null_pointer_is_valid sspstrong uwtable
define hidden void @proto_register_lbttcp() #0 {
  %1 = alloca ptr, align 8
  %2 = alloca ptr, align 8
  call void @llvm.lifetime.start.p0(i64 8, ptr %1) #9
  call void @llvm.lifetime.start.p0(i64 8, ptr %2) #9
  %3 = call i32 @proto_register_protocol(ptr noundef @.str.10, ptr noundef @.str.11, ptr noundef @.str.12)
  store i32 %3, ptr @proto_lbttcp, align 4
  %4 = load i32, ptr @proto_lbttcp, align 4
  call void @proto_register_field_array(i32 noundef %4, ptr noundef @proto_register_lbttcp.hf, i32 noundef 4)
  call void @proto_register_subtree_array(ptr noundef @proto_register_lbttcp.ett, i32 noundef 2)
  %5 = load i32, ptr @proto_lbttcp, align 4
  %6 = call ptr @register_dissector(ptr noundef @.str.12, ptr noundef @dissect_lbttcp, i32 noundef %5)
  store ptr %6, ptr @lbttcp_dissector_handle, align 8
  %7 = load i32, ptr @proto_lbttcp, align 4
  %8 = call ptr @prefs_register_protocol_subtree(ptr noundef @.str.13, i32 noundef %7, ptr noundef @proto_reg_handoff_lbttcp)
  store ptr %8, ptr %1, align 8
  %9 = load ptr, ptr %1, align 8
  call void @prefs_register_uint_preference(ptr noundef %9, ptr noundef @.str.14, ptr noundef @.str.15, ptr noundef @.str.16, i32 noundef 10, ptr noundef @global_lbttcp_source_port_low)
  %10 = load ptr, ptr %1, align 8
  call void @prefs_register_uint_preference(ptr noundef %10, ptr noundef @.str.17, ptr noundef @.str.18, ptr noundef @.str.19, i32 noundef 10, ptr noundef @global_lbttcp_source_port_high)
  %11 = load ptr, ptr %1, align 8
  call void @prefs_register_uint_preference(ptr noundef %11, ptr noundef @.str.20, ptr noundef @.str.21, ptr noundef @.str.22, i32 noundef 10, ptr noundef @global_lbttcp_request_port_low)
  %12 = load ptr, ptr %1, align 8
  call void @prefs_register_uint_preference(ptr noundef %12, ptr noundef @.str.23, ptr noundef @.str.24, ptr noundef @.str.25, i32 noundef 10, ptr noundef @global_lbttcp_request_port_high)
  %13 = load ptr, ptr %1, align 8
  call void @prefs_register_uint_preference(ptr noundef %13, ptr noundef @.str.26, ptr noundef @.str.27, ptr noundef @.str.28, i32 noundef 10, ptr noundef @global_lbttcp_store_port_low)
  %14 = load ptr, ptr %1, align 8
  call void @prefs_register_uint_preference(ptr noundef %14, ptr noundef @.str.29, ptr noundef @.str.30, ptr noundef @.str.31, i32 noundef 10, ptr noundef @global_lbttcp_store_port_high)
  %15 = load ptr, ptr %1, align 8
  call void @prefs_register_bool_preference(ptr noundef %15, ptr noundef @.str.32, ptr noundef @.str.33, ptr noundef @.str.34, ptr noundef @global_lbttcp_use_tag)
  %16 = call ptr @uat_new(ptr noundef @.str.35, i64 noundef 32, ptr noundef @.str.36, i1 noundef zeroext true, ptr noundef @lbttcp_tag_entry, ptr noundef @lbttcp_tag_count, i32 noundef 1, ptr noundef null, ptr noundef @lbttcp_tag_copy_cb, ptr noundef @lbttcp_tag_update_cb, ptr noundef @lbttcp_tag_free_cb, ptr noundef null, ptr noundef null, ptr noundef @lbttcp_tag_array)
  store ptr %16, ptr %2, align 8
  %17 = load ptr, ptr %1, align 8
  %18 = load ptr, ptr %2, align 8
  call void @prefs_register_uat_preference(ptr noundef %17, ptr noundef @.str.37, ptr noundef @.str.38, ptr noundef @.str.39, ptr noundef %18)
  call void @llvm.lifetime.end.p0(i64 8, ptr %2) #9
  call void @llvm.lifetime.end.p0(i64 8, ptr %1) #9
  ret void
}