; Function Attrs: null_pointer_is_valid sspstrong uwtable
define hidden void @proto_register_lbttcp() local_unnamed_addr #0 {
  %1 = tail call i32 @proto_register_protocol(ptr noundef nonnull @.str.10, ptr noundef nonnull @.str.11, ptr noundef nonnull @.str.12)
  store i32 %1, ptr @proto_lbttcp, align 4
  tail call void @proto_register_field_array(i32 noundef %1, ptr noundef nonnull @proto_register_lbttcp.hf, i32 noundef 4)
  tail call void @proto_register_subtree_array(ptr noundef nonnull @proto_register_lbttcp.ett, i32 noundef 2)
  %2 = load i32, ptr @proto_lbttcp, align 4
  %3 = tail call ptr @register_dissector(ptr noundef nonnull @.str.12, ptr noundef nonnull @dissect_lbttcp, i32 noundef %2)
  store ptr %3, ptr @lbttcp_dissector_handle, align 8
  %4 = load i32, ptr @proto_lbttcp, align 4
  %5 = tail call ptr @prefs_register_protocol_subtree(ptr noundef nonnull @.str.13, i32 noundef %4, ptr noundef nonnull @proto_reg_handoff_lbttcp)
  tail call void @prefs_register_uint_preference(ptr noundef %5, ptr noundef nonnull @.str.14, ptr noundef nonnull @.str.15, ptr noundef nonnull @.str.16, i32 noundef 10, ptr noundef nonnull @global_lbttcp_source_port_low)
  tail call void @prefs_register_uint_preference(ptr noundef %5, ptr noundef nonnull @.str.17, ptr noundef nonnull @.str.18, ptr noundef nonnull @.str.19, i32 noundef 10, ptr noundef nonnull @global_lbttcp_source_port_high)
  tail call void @prefs_register_uint_preference(ptr noundef %5, ptr noundef nonnull @.str.20, ptr noundef nonnull @.str.21, ptr noundef nonnull @.str.22, i32 noundef 10, ptr noundef nonnull @global_lbttcp_request_port_low)
  tail call void @prefs_register_uint_preference(ptr noundef %5, ptr noundef nonnull @.str.23, ptr noundef nonnull @.str.24, ptr noundef nonnull @.str.25, i32 noundef 10, ptr noundef nonnull @global_lbttcp_request_port_high)
  tail call void @prefs_register_uint_preference(ptr noundef %5, ptr noundef nonnull @.str.26, ptr noundef nonnull @.str.27, ptr noundef nonnull @.str.28, i32 noundef 10, ptr noundef nonnull @global_lbttcp_store_port_low)
  tail call void @prefs_register_uint_preference(ptr noundef %5, ptr noundef nonnull @.str.29, ptr noundef nonnull @.str.30, ptr noundef nonnull @.str.31, i32 noundef 10, ptr noundef nonnull @global_lbttcp_store_port_high)
  tail call void @prefs_register_bool_preference(ptr noundef %5, ptr noundef nonnull @.str.32, ptr noundef nonnull @.str.33, ptr noundef nonnull @.str.34, ptr noundef nonnull @global_lbttcp_use_tag)
  %6 = tail call ptr @uat_new(ptr noundef nonnull @.str.35, i64 noundef 32, ptr noundef nonnull @.str.36, i1 noundef zeroext true, ptr noundef nonnull @lbttcp_tag_entry, ptr noundef nonnull @lbttcp_tag_count, i32 noundef 1, ptr noundef null, ptr noundef nonnull @lbttcp_tag_copy_cb, ptr noundef nonnull @lbttcp_tag_update_cb, ptr noundef nonnull @lbttcp_tag_free_cb, ptr noundef null, ptr noundef null, ptr noundef nonnull @lbttcp_tag_array)
  tail call void @prefs_register_uat_preference(ptr noundef %5, ptr noundef nonnull @.str.37, ptr noundef nonnull @.str.38, ptr noundef nonnull @.str.39, ptr noundef %6)
  ret void
}